target datalayout = "e-m:e-p270:32:32-p271:32:32-p272:64:64-i64:64-i128:128-f80:128-n8:16:32:64-S128"
target triple = "x86_64-pc-linux-gnu"

%struct.RBasic = type { i64, i64 }
%struct.rbimpl_size_mul_overflow_tag = type { i8, i64 }
%struct.RString = type { %struct.RBasic, i64, %union.anon.17 }
%union.anon.17 = type { %struct.anon.18 }
%struct.anon.18 = type { ptr, %union.anon.19 }
%union.anon.19 = type { i64 }
%struct.anon.20 = type { [1 x i8] }

@rb_eArgError = external global i64, align 8
@.str.156 = private unnamed_addr constant [36 x i8] c"string for Float contains null byte\00", align 1

; Function Attrs: inlinehint nounwind sspstrong willreturn memory(read) uwtable
define internal i64 @RB_FL_TEST_RAW(i64 noundef %0, i64 noundef %1) #7 {
  %3 = alloca i64, align 8
  %4 = alloca i64, align 8
  store i64 %0, ptr %3, align 8, !tbaa !11
  store i64 %1, ptr %4, align 8, !tbaa !11
  %5 = load i64, ptr %3, align 8, !tbaa !11
  %6 = inttoptr i64 %5 to ptr
  %7 = getelementptr inbounds nuw %struct.RBasic, ptr %6, i32 0, i32 0
  %8 = load i64, ptr %7, align 8, !tbaa !28
  %9 = load i64, ptr %4, align 8, !tbaa !11
  %10 = and i64 %8, %9
  ret i64 %10
}

; Function Attrs: inlinehint nounwind sspstrong willreturn memory(read) uwtable
define internal zeroext i1 @RB_FL_ANY_RAW(i64 noundef %0, i64 noundef %1) #7 {
  %3 = alloca i64, align 8
  %4 = alloca i64, align 8
  store i64 %0, ptr %3, align 8, !tbaa !11
  store i64 %1, ptr %4, align 8, !tbaa !11
  %5 = load i64, ptr %3, align 8, !tbaa !11
  %6 = load i64, ptr %4, align 8, !tbaa !11
  %7 = call i64 @RB_FL_TEST_RAW(i64 noundef %5, i64 noundef %6) #29
  %8 = icmp ne i64 %7, 0
  ret i1 %8
}

; Function Attrs: alwaysinline nounwind
define internal ptr @memcpy.inline(ptr noalias nonnull %0, ptr noalias nonnull %1, i64 %2) #17 {
  %4 = alloca ptr, align 8
  %5 = alloca ptr, align 8
  %6 = alloca i64, align 8
  store ptr %0, ptr %4, align 8, !tbaa !44
  store ptr %1, ptr %5, align 8, !tbaa !44
  store i64 %2, ptr %6, align 8, !tbaa !11
  %7 = load ptr, ptr %4, align 8, !tbaa !44
  %8 = load ptr, ptr %5, align 8, !tbaa !44
  %9 = load i64, ptr %6, align 8, !tbaa !11
  %10 = load ptr, ptr %4, align 8, !tbaa !44
  %11 = call i64 @llvm.objectsize.i64.p0(ptr %10, i1 false, i1 true, i1 false)
  %12 = call ptr @__memcpy_chk(ptr noundef %7, ptr noundef %8, i64 noundef %9, i64 noundef %11) #28
  ret ptr %12
}

; Function Attrs: inlinehint nounwind sspstrong willreturn memory(none) uwtable
define internal { i8, i64 } @rbimpl_size_mul_overflow(i64 noundef %0, i64 noundef %1) #1 {
  %3 = alloca %struct.rbimpl_size_mul_overflow_tag, align 8
  %4 = alloca i64, align 8
  %5 = alloca i64, align 8
  store i64 %0, ptr %4, align 8, !tbaa !11
  store i64 %1, ptr %5, align 8, !tbaa !11
  call void @llvm.memset.p0.i64(ptr align 8 %3, i8 0, i64 16, i1 false)
  %6 = load i64, ptr %4, align 8, !tbaa !11
  %7 = load i64, ptr %5, align 8, !tbaa !11
  %8 = getelementptr inbounds nuw %struct.rbimpl_size_mul_overflow_tag, ptr %3, i32 0, i32 1
  %9 = call { i64, i1 } @llvm.umul.with.overflow.i64(i64 %6, i64 %7)
  %10 = extractvalue { i64, i1 } %9, 1
  %11 = extractvalue { i64, i1 } %9, 0
  store i64 %11, ptr %8, align 8
  %12 = getelementptr inbounds nuw %struct.rbimpl_size_mul_overflow_tag, ptr %3, i32 0, i32 0
  %13 = zext i1 %10 to i8
  store i8 %13, ptr %12, align 8, !tbaa !45
  %14 = load { i8, i64 }, ptr %3, align 8
  ret { i8, i64 } %14
}

; Function Attrs: inlinehint nounwind sspstrong willreturn memory(read, argmem: readwrite) uwtable
define internal void @rbimpl_rstring_getmem(ptr dead_on_unwind noalias writable sret(%struct.RString) align 8 %0, i64 noundef %1) #25 {
  %3 = alloca i64, align 8
  store i64 %1, ptr %3, align 8, !tbaa !11
  %4 = load i64, ptr %3, align 8, !tbaa !11
  %5 = call zeroext i1 @RB_FL_ANY_RAW(i64 noundef %4, i64 noundef 8192) #29
  br i1 %5, label %6, label %9

6:                                                ; preds = %2
  %7 = load i64, ptr %3, align 8, !tbaa !11
  %8 = inttoptr i64 %7 to ptr
  call void @llvm.memcpy.p0.p0.i64(ptr align 8 %0, ptr align 8 %8, i64 40, i1 false), !tbaa.struct !124
  br label %20

9:                                                ; preds = %2
  %10 = load i64, ptr %3, align 8, !tbaa !11
  %11 = call i64 @RSTRING_LEN(i64 noundef %10) #29
  %12 = getelementptr inbounds nuw %struct.RString, ptr %0, i32 0, i32 1
  store i64 %11, ptr %12, align 8, !tbaa !125
  %13 = load i64, ptr %3, align 8, !tbaa !11
  %14 = inttoptr i64 %13 to ptr
  %15 = getelementptr inbounds nuw %struct.RString, ptr %14, i32 0, i32 2
  %16 = getelementptr inbounds nuw %struct.anon.20, ptr %15, i32 0, i32 0
  %17 = getelementptr inbounds [1 x i8], ptr %16, i64 0, i64 0
  %18 = getelementptr inbounds nuw %struct.RString, ptr %0, i32 0, i32 2
  %19 = getelementptr inbounds nuw %struct.anon.18, ptr %18, i32 0, i32 0
  store ptr %17, ptr %19, align 8, !tbaa !42
  br label %20

20:                                               ; preds = %9, %6
  ret void
}

; Function Attrs: inlinehint nounwind sspstrong memory(argmem: readwrite, inaccessiblemem: readwrite) uwtable
define internal nonnull ptr @ruby_nonempty_memcpy(ptr noundef nonnull %0, ptr noundef %1, i64 noundef %2) #9 {
  %4 = alloca ptr, align 8
  %5 = alloca ptr, align 8
  %6 = alloca ptr, align 8
  %7 = alloca i64, align 8
  store ptr %0, ptr %5, align 8, !tbaa !44
  store ptr %1, ptr %6, align 8, !tbaa !44
  store i64 %2, ptr %7, align 8, !tbaa !11
  %8 = load i64, ptr %7, align 8, !tbaa !11
  %9 = icmp ne i64 %8, 0
  br i1 %9, label %10, label %15

10:                                               ; preds = %3
  %11 = load ptr, ptr %5, align 8, !tbaa !44
  %12 = load ptr, ptr %6, align 8, !tbaa !44
  %13 = load i64, ptr %7, align 8, !tbaa !11
  %14 = call ptr @memcpy.inline(ptr noundef %11, ptr noundef %12, i64 noundef %13) #28
  store ptr %14, ptr %4, align 8
  br label %17

15:                                               ; preds = %3
  %16 = load ptr, ptr %5, align 8, !tbaa !44
  store ptr %16, ptr %4, align 8
  br label %17

17:                                               ; preds = %15, %10
  %18 = load ptr, ptr %4, align 8
  ret ptr %18
}

; Function Attrs: inlinehint nounwind sspstrong uwtable
define internal i64 @rbimpl_size_mul_or_raise(i64 noundef %0, i64 noundef %1) #2 {
  %3 = alloca i64, align 8
  %4 = alloca i64, align 8
  %5 = alloca %struct.rbimpl_size_mul_overflow_tag, align 8
  store i64 %0, ptr %3, align 8, !tbaa !11
  store i64 %1, ptr %4, align 8, !tbaa !11
  call void @llvm.lifetime.start.p0(i64 16, ptr %5) #28
  %6 = load i64, ptr %3, align 8, !tbaa !11
  %7 = load i64, ptr %4, align 8, !tbaa !11
  %8 = call { i8, i64 } @rbimpl_size_mul_overflow(i64 noundef %6, i64 noundef %7) #27
  %9 = getelementptr inbounds nuw { i8, i64 }, ptr %5, i32 0, i32 0
  %10 = extractvalue { i8, i64 } %8, 0
  store i8 %10, ptr %9, align 8
  %11 = getelementptr inbounds nuw { i8, i64 }, ptr %5, i32 0, i32 1
  %12 = extractvalue { i8, i64 } %8, 1
  store i64 %12, ptr %11, align 8
  %13 = getelementptr inbounds nuw %struct.rbimpl_size_mul_overflow_tag, ptr %5, i32 0, i32 0
  %14 = load i8, ptr %13, align 8, !tbaa !45, !range !47, !noundef !48
  %15 = trunc i8 %14 to i1
  %16 = xor i1 %15, true
  %17 = xor i1 %16, true
  %18 = xor i1 %17, true
  %19 = zext i1 %18 to i32
  %20 = sext i32 %19 to i64
  %21 = call i64 @llvm.expect.i64(i64 %20, i64 1)
  %22 = icmp ne i64 %21, 0
  br i1 %22, label %23, label %26

23:                                               ; preds = %2
  %24 = getelementptr inbounds nuw %struct.rbimpl_size_mul_overflow_tag, ptr %5, i32 0, i32 1
  %25 = load i64, ptr %24, align 8, !tbaa !49
  call void @llvm.lifetime.end.p0(i64 16, ptr %5) #28
  ret i64 %25

26:                                               ; preds = %2
  %27 = load i64, ptr %3, align 8, !tbaa !11
  %28 = load i64, ptr %4, align 8, !tbaa !11
  call void @ruby_malloc_size_overflow(i64 noundef %27, i64 noundef %28) #31
  unreachable
}

; Function Attrs: inlinehint nounwind sspstrong willreturn memory(read) uwtable
define internal i64 @RSTRING_LEN(i64 noundef %0) #7 {
  %2 = alloca i64, align 8
  store i64 %0, ptr %2, align 8, !tbaa !11
  %3 = load i64, ptr %2, align 8, !tbaa !11
  %4 = inttoptr i64 %3 to ptr
  %5 = getelementptr inbounds nuw %struct.RString, ptr %4, i32 0, i32 1
  %6 = load i64, ptr %5, align 8, !tbaa !125
  ret i64 %6
}

; Function Attrs: inlinehint nounwind sspstrong uwtable
define internal ptr @RSTRING_PTR(i64 noundef %0) #2 {
  %2 = alloca i64, align 8
  %3 = alloca ptr, align 8
  %4 = alloca %struct.RString, align 8
  store i64 %0, ptr %2, align 8, !tbaa !11
  call void @llvm.lifetime.start.p0(i64 8, ptr %3) #28
  %5 = load i64, ptr %2, align 8, !tbaa !11
  call void @rbimpl_rstring_getmem(ptr dead_on_unwind writable sret(%struct.RString) align 8 %4, i64 noundef %5) #33
  %6 = getelementptr inbounds nuw %struct.RString, ptr %4, i32 0, i32 2
  %7 = getelementptr inbounds nuw %struct.anon.18, ptr %6, i32 0, i32 0
  %8 = load ptr, ptr %7, align 8, !tbaa !42
  store ptr %8, ptr %3, align 8, !tbaa !50
  %9 = load ptr, ptr %3, align 8, !tbaa !50
  call void @llvm.lifetime.end.p0(i64 8, ptr %3) #28
  ret ptr %9
}

; Function Attrs: nounwind sspstrong uwtable
define internal double @rb_str_to_dbl_raise(i64 noundef %0, i32 noundef %1, i32 noundef %2, ptr noundef %3) #0 {
  %5 = alloca double, align 8
  %6 = alloca i64, align 8
  %7 = alloca i32, align 4
  %8 = alloca i32, align 4
  %9 = alloca ptr, align 8
  %10 = alloca ptr, align 8
  %11 = alloca i64, align 8
  %12 = alloca double, align 8
  %13 = alloca i64, align 8
  %14 = alloca i32, align 4
  %15 = alloca ptr, align 8
  %16 = alloca ptr, align 8
  %17 = alloca ptr, align 8
  store i64 %0, ptr %6, align 8, !tbaa !11
  store i32 %1, ptr %7, align 4, !tbaa !7
  store i32 %2, ptr %8, align 4, !tbaa !7
  store ptr %3, ptr %9, align 8, !tbaa !85
  call void @llvm.lifetime.start.p0(i64 8, ptr %10) #28
  call void @llvm.lifetime.start.p0(i64 8, ptr %11) #28
  call void @llvm.lifetime.start.p0(i64 8, ptr %12) #28
  call void @llvm.lifetime.start.p0(i64 8, ptr %13) #28
  store i64 0, ptr %13, align 8, !tbaa !11
  %18 = call i64 @rb_string_value(ptr noundef %6)
  %19 = load i64, ptr %6, align 8, !tbaa !11
  call void @rb_must_asciicompat(i64 noundef %19)
  %20 = load i64, ptr %6, align 8, !tbaa !11
  %21 = call ptr @RSTRING_PTR(i64 noundef %20)
  store ptr %21, ptr %10, align 8, !tbaa !50
  %22 = load i64, ptr %6, align 8, !tbaa !11
  %23 = call i64 @RSTRING_LEN(i64 noundef %22) #29
  store i64 %23, ptr %11, align 8, !tbaa !11
  %24 = load ptr, ptr %10, align 8, !tbaa !50
  %25 = icmp ne ptr %24, null
  br i1 %25, label %26, label %75

26:                                               ; preds = %4
  %27 = load i32, ptr %7, align 4, !tbaa !7
  %28 = icmp ne i32 %27, 0
  br i1 %28, label %29, label %45

29:                                               ; preds = %26
  %30 = load ptr, ptr %10, align 8, !tbaa !50
  %31 = load i64, ptr %11, align 8, !tbaa !11
  %32 = call ptr @memchr(ptr noundef %30, i32 noundef 0, i64 noundef %31) #29
  %33 = icmp ne ptr %32, null
  br i1 %33, label %34, label %45

34:                                               ; preds = %29
  %35 = load i32, ptr %8, align 4, !tbaa !7
  %36 = icmp ne i32 %35, 0
  br i1 %36, label %37, label %39

37:                                               ; preds = %34
  %38 = load i64, ptr @rb_eArgError, align 8, !tbaa !11
  call void (i64, ptr, ...) @rb_raise(i64 noundef %38, ptr noundef @.str.156) #31
  unreachable

39:                                               ; preds = %34
  %40 = load ptr, ptr %9, align 8, !tbaa !85
  %41 = icmp ne ptr %40, null
  br i1 %41, label %42, label %44

42:                                               ; preds = %39
  %43 = load ptr, ptr %9, align 8, !tbaa !85
  store i32 1, ptr %43, align 4, !tbaa !7
  br label %44

44:                                               ; preds = %42, %39
  store double 0.000000e+00, ptr %5, align 8
  store i32 1, ptr %14, align 4
  br label %92

45:                                               ; preds = %29, %26
  %46 = load ptr, ptr %10, align 8, !tbaa !50
  %47 = load i64, ptr %11, align 8, !tbaa !11
  %48 = getelementptr i8, ptr %46, i64 %47
  %49 = load i8, ptr %48, align 1, !tbaa !42
  %50 = icmp ne i8 %49, 0
  br i1 %50, label %51, label %74

51:                                               ; preds = %45
  call void @llvm.lifetime.start.p0(i64 8, ptr %15) #28
  %52 = load i64, ptr %11, align 8, !tbaa !11
  %53 = add i64 %52, 1
  %54 = icmp ult i64 %53, 1024
  br i1 %54, label %55, label %59

55:                                               ; preds = %51
  store i64 0, ptr %13, align 8, !tbaa !11
  %56 = load i64, ptr %11, align 8, !tbaa !11
  %57 = add i64 %56, 1
  %58 = alloca i8, i64 %57, align 16
  br label %63

59:                                               ; preds = %51
  %60 = load i64, ptr %11, align 8, !tbaa !11
  %61 = add i64 %60, 1
  %62 = call noalias nonnull ptr @rb_alloc_tmp_buffer(ptr noundef %13, i64 noundef %61) #34
  br label %63

63:                                               ; preds = %59, %55
  %64 = phi ptr [ %58, %55 ], [ %62, %59 ]
  store ptr %64, ptr %15, align 8, !tbaa !50
  %65 = load ptr, ptr %15, align 8, !tbaa !50
  %66 = load ptr, ptr %10, align 8, !tbaa !50
  %67 = load i64, ptr %11, align 8, !tbaa !11
  %68 = call i64 @rbimpl_size_mul_or_raise(i64 noundef 1, i64 noundef %67)
  %69 = call nonnull ptr @ruby_nonempty_memcpy(ptr noundef %65, ptr noundef %66, i64 noundef %68) #30
  %70 = load ptr, ptr %15, align 8, !tbaa !50
  %71 = load i64, ptr %11, align 8, !tbaa !11
  %72 = getelementptr i8, ptr %70, i64 %71
  store i8 0, ptr %72, align 1, !tbaa !42
  %73 = load ptr, ptr %15, align 8, !tbaa !50
  store ptr %73, ptr %10, align 8, !tbaa !50
  call void @llvm.lifetime.end.p0(i64 8, ptr %15) #28
  br label %74

74:                                               ; preds = %63, %45
  br label %75

75:                                               ; preds = %74, %4
  %76 = load ptr, ptr %10, align 8, !tbaa !50
  %77 = load i64, ptr %6, align 8, !tbaa !11
  %78 = call ptr @rb_enc_get(i64 noundef %77)
  %79 = load i32, ptr %7, align 4, !tbaa !7
  %80 = load i32, ptr %8, align 4, !tbaa !7
  %81 = load ptr, ptr %9, align 8, !tbaa !85
  %82 = call double @rb_cstr_to_dbl_raise(ptr noundef %76, ptr noundef %78, i32 noundef %79, i32 noundef %80, ptr noundef %81)
  store double %82, ptr %12, align 8, !tbaa !83
  %83 = load i64, ptr %13, align 8, !tbaa !11
  %84 = icmp ne i64 %83, 0
  br i1 %84, label %85, label %86

85:                                               ; preds = %75
  call void @rb_free_tmp_buffer(ptr noundef %13)
  br label %90

86:                                               ; preds = %75
  call void @llvm.lifetime.start.p0(i64 8, ptr %16) #28
  store ptr %6, ptr %16, align 8, !tbaa !36
  call void asm sideeffect "", "*m,~{dirflag},~{fpsr},~{flags}"(ptr elementtype(ptr) %16) #28, !srcloc !94
  %87 = load ptr, ptr %16, align 8, !tbaa !36
  store ptr %87, ptr %17, align 8, !tbaa !36
  call void @llvm.lifetime.end.p0(i64 8, ptr %16) #28
  %88 = load ptr, ptr %17, align 8, !tbaa !36
  %89 = load volatile i64, ptr %88, align 8, !tbaa !11
  br label %90

90:                                               ; preds = %86, %85
  %91 = load double, ptr %12, align 8, !tbaa !83
  store double %91, ptr %5, align 8
  store i32 1, ptr %14, align 4
  br label %92

92:                                               ; preds = %90, %44
  call void @llvm.lifetime.end.p0(i64 8, ptr %13) #28
  call void @llvm.lifetime.end.p0(i64 8, ptr %12) #28
  call void @llvm.lifetime.end.p0(i64 8, ptr %11) #28
  call void @llvm.lifetime.end.p0(i64 8, ptr %10) #28
  %93 = load double, ptr %5, align 8
  ret double %93
}