; Function Attrs: nounwind sspstrong uwtable
define internal fastcc double @rb_str_to_dbl_raise(i64 noundef %0, i32 noundef %1, i32 noundef range(i32 0, 2) %2, ptr noundef captures(address_is_null) %3) unnamed_addr #2 {
  %5 = alloca i64, align 8
  %6 = alloca i64, align 8
  %7 = alloca ptr, align 8
  store i64 %0, ptr %5, align 8, !tbaa !7
  call void @llvm.lifetime.start.p0(i64 8, ptr nonnull %6) #23
  store i64 0, ptr %6, align 8, !tbaa !7
  %8 = call i64 @rb_string_value(ptr noundef nonnull %5) #23
  %9 = load i64, ptr %5, align 8, !tbaa !7
  call void @rb_must_asciicompat(i64 noundef %9) #23
  %10 = load i64, ptr %5, align 8, !tbaa !7
  %11 = inttoptr i64 %10 to ptr
  %12 = load i64, ptr %11, align 8, !tbaa !24, !noalias !87
  %13 = and i64 %12, 8192
  %.not.i.i = icmp eq i64 %13, 0
  %14 = getelementptr inbounds nuw i8, ptr %11, i64 24
  br i1 %.not.i.i, label %RSTRING_PTR.exit.thread, label %RSTRING_PTR.exit

RSTRING_PTR.exit:                                 ; preds = %4
  %.sroa.2.0.copyload.i = load ptr, ptr %14, align 8
  %.not = icmp eq ptr %.sroa.2.0.copyload.i, null
  br i1 %.not, label %35, label %RSTRING_PTR.exit.thread

RSTRING_PTR.exit.thread:                          ; preds = %4, %RSTRING_PTR.exit
  %.sroa.2.0.i37 = phi ptr [ %.sroa.2.0.copyload.i, %RSTRING_PTR.exit ], [ %14, %4 ]
  %.in = getelementptr inbounds nuw i8, ptr %11, i64 16
  %15 = load i64, ptr %.in, align 8, !tbaa !90
  %.not29 = icmp eq i32 %1, 0
  br i1 %.not29, label %23, label %16

16:                                               ; preds = %RSTRING_PTR.exit.thread
  %17 = call ptr @memchr(ptr noundef nonnull %.sroa.2.0.i37, i32 noundef 0, i64 noundef %15) #26
  %.not30 = icmp eq ptr %17, null
  br i1 %.not30, label %23, label %18

18:                                               ; preds = %16
  %.not33 = icmp eq i32 %2, 0
  br i1 %.not33, label %21, label %19

19:                                               ; preds = %18
  %20 = load i64, ptr @rb_eArgError, align 8, !tbaa !7
  call void (i64, ptr, ...) @rb_raise(i64 noundef %20, ptr noundef nonnull @.str.156) #24
  unreachable

21:                                               ; preds = %18
  %.not34 = icmp eq ptr %3, null
  br i1 %.not34, label %44, label %22

22:                                               ; preds = %21
  store i32 1, ptr %3, align 4, !tbaa !79
  br label %44

23:                                               ; preds = %16, %RSTRING_PTR.exit.thread
  %24 = getelementptr i8, ptr %.sroa.2.0.i37, i64 %15
  %25 = load i8, ptr %24, align 1, !tbaa !28
  %.not31 = icmp eq i8 %25, 0
  br i1 %.not31, label %35, label %26

26:                                               ; preds = %23
  %27 = add i64 %15, 1
  %28 = icmp ult i64 %27, 1024
  br i1 %28, label %rbimpl_size_mul_or_raise.exit, label %rbimpl_size_mul_or_raise.exit.thread

rbimpl_size_mul_or_raise.exit.thread:             ; preds = %26
  %29 = call noalias nonnull ptr @rb_alloc_tmp_buffer(ptr noundef nonnull %6, i64 noundef %27) #29
  br label %31

rbimpl_size_mul_or_raise.exit:                    ; preds = %26
  store i64 0, ptr %6, align 8, !tbaa !7
  %30 = alloca i8, i64 %27, align 16
  %.not.i = icmp eq i64 %15, 0
  br i1 %.not.i, label %ruby_nonempty_memcpy.exit, label %31

31:                                               ; preds = %rbimpl_size_mul_or_raise.exit.thread, %rbimpl_size_mul_or_raise.exit
  %32 = phi ptr [ %29, %rbimpl_size_mul_or_raise.exit.thread ], [ %30, %rbimpl_size_mul_or_raise.exit ]
  call void @llvm.memcpy.p0.p0.i64(ptr noundef nonnull align 1 %32, ptr noundef nonnull readonly align 1 %.sroa.2.0.i37, i64 noundef range(i64 1, 0) %15, i1 noundef false) #23
  br label %ruby_nonempty_memcpy.exit

ruby_nonempty_memcpy.exit:                        ; preds = %rbimpl_size_mul_or_raise.exit, %31
  %33 = phi ptr [ %30, %rbimpl_size_mul_or_raise.exit ], [ %32, %31 ]
  %34 = getelementptr i8, ptr %33, i64 %15
  store i8 0, ptr %34, align 1, !tbaa !28
  %.pre = load i64, ptr %5, align 8, !tbaa !7
  br label %35

35:                                               ; preds = %23, %ruby_nonempty_memcpy.exit, %RSTRING_PTR.exit
  %36 = phi i64 [ %.pre, %ruby_nonempty_memcpy.exit ], [ %10, %23 ], [ %10, %RSTRING_PTR.exit ]
  %.024 = phi ptr [ %33, %ruby_nonempty_memcpy.exit ], [ %.sroa.2.0.i37, %23 ], [ null, %RSTRING_PTR.exit ]
  %37 = call ptr @rb_enc_get(i64 noundef %36) #23
  %38 = call fastcc double @rb_cstr_to_dbl_raise(ptr noundef %.024, ptr noundef %37, i32 noundef %1, i32 noundef %2, ptr noundef %3)
  %39 = load i64, ptr %6, align 8, !tbaa !7
  %.not32 = icmp eq i64 %39, 0
  br i1 %.not32, label %41, label %40

40:                                               ; preds = %35
  call void @rb_free_tmp_buffer(ptr noundef nonnull %6) #23
  br label %44

41:                                               ; preds = %35
  call void @llvm.lifetime.start.p0(i64 8, ptr nonnull %7) #23
  store ptr %5, ptr %7, align 8, !tbaa !92
  call void asm sideeffect "", "*m,~{dirflag},~{fpsr},~{flags}"(ptr nonnull elementtype(ptr) %7) #23, !srcloc !93
  %42 = load ptr, ptr %7, align 8, !tbaa !92
  call void @llvm.lifetime.end.p0(i64 8, ptr nonnull %7) #23
  %43 = load volatile i64, ptr %42, align 8, !tbaa !7
  br label %44

44:                                               ; preds = %40, %41, %21, %22
  %.0 = phi double [ 0.000000e+00, %22 ], [ 0.000000e+00, %21 ], [ %38, %41 ], [ %38, %40 ]
  call void @llvm.lifetime.end.p0(i64 8, ptr nonnull %6) #23
  ret double %.0
}